target datalayout = "e-m:e-p270:32:32-p271:32:32-p272:64:64-i64:64-i128:128-f80:128-n8:16:32:64-S128"
target triple = "x86_64-pc-linux-gnu"

%"class.boost::detail::shared_count" = type { ptr }
%"class.std::__cxx11::basic_string" = type { %"struct.std::__cxx11::basic_string<char>::_Alloc_hider", i64, %union.anon }
%"struct.std::__cxx11::basic_string<char>::_Alloc_hider" = type { ptr }
%union.anon = type { i64, [8 x i8] }
%"class.boost::filesystem::path" = type { %"class.std::__cxx11::basic_string" }
%"class.std::basic_ostream.base" = type { ptr }
%"class.std::basic_streambuf" = type { ptr, ptr, ptr, ptr, ptr, ptr, ptr, %"class.std::locale" }
%"class.std::locale" = type { ptr }
%"class.std::basic_ios" = type { %"class.std::ios_base", ptr, i8, i8, ptr, ptr, ptr, ptr }
%"class.std::ios_base" = type { ptr, i64, i64, i32, i32, i32, ptr, %"struct.std::ios_base::_Words", [8 x %"struct.std::ios_base::_Words"], i32, ptr, %"class.std::locale" }
%"struct.std::ios_base::_Words" = type { ptr, i64 }
%"class.boost::log::v2_mt_posix::aux::light_function" = type { ptr }
%union.pthread_mutex_t = type { %struct.__pthread_mutex_s }
%struct.__pthread_mutex_s = type { i32, i32, i32, i32, i32, i16, i16, %struct.__pthread_internal_list }
%struct.__pthread_internal_list = type { ptr, ptr }
%"class.boost::shared_ptr.131" = type { ptr, %"class.boost::detail::shared_count" }
%"class.boost::log::v2_mt_posix::aux::light_function.154" = type { ptr }
%"class.boost::log::v2_mt_posix::sinks::text_file_backend" = type { ptr }
%"struct.boost::log::v2_mt_posix::sinks::text_file_backend::implementation" = type { %"class.boost::filesystem::path", %"class.boost::filesystem::path", %"class.boost::log::v2_mt_posix::aux::light_function", %"class.boost::filesystem::path", %"class.boost::filesystem::path", %"class.boost::log::v2_mt_posix::aux::light_function", i32, i32, %"class.boost::filesystem::path", %"class.boost::filesystem::basic_ofstream", i64, %"class.boost::shared_ptr.131", %"class.boost::log::v2_mt_posix::aux::light_function.153", %"class.boost::log::v2_mt_posix::aux::light_function.153", i64, %"class.boost::log::v2_mt_posix::aux::light_function.154", i32, i8, i8, i8, i8 }
%"class.boost::filesystem::basic_ofstream" = type { %"class.std::basic_ofstream.base", %"class.std::basic_ios" }
%"class.std::basic_ofstream.base" = type { %"class.std::basic_ostream.base", %"class.std::basic_filebuf" }
%"class.std::basic_filebuf" = type { %"class.std::basic_streambuf", %union.pthread_mutex_t, %"class.std::__basic_file", i32, %struct.__mbstate_t, %struct.__mbstate_t, %struct.__mbstate_t, ptr, i64, i8, i8, i8, i8, ptr, ptr, i8, ptr, ptr, i64, ptr, ptr }
%"class.std::__basic_file" = type <{ ptr, i8, [7 x i8] }>
%struct.__mbstate_t = type { i32, %union.anon.152 }
%union.anon.152 = type { i32 }
%"class.boost::log::v2_mt_posix::aux::light_function.153" = type { ptr }
%"class.std::basic_ofstream" = type { %"class.std::basic_ostream.base", %"class.std::basic_filebuf", %"class.std::basic_ios" }
%"struct.boost::log::v2_mt_posix::aux::light_function<void (std::basic_ostream<char> &)>::impl_base" = type { ptr, ptr, ptr }

; Function Attrs: mustprogress nounwind uwtable
define linkonce_odr hidden void @_ZNSt11char_traitsIcE6assignERcRKc(ptr noundef nonnull align 1 dereferenceable(1) %0, ptr noundef nonnull align 1 dereferenceable(1) %1) #3 comdat align 2 {
  %3 = alloca ptr, align 8
  %4 = alloca ptr, align 8
  store ptr %0, ptr %3, align 8, !tbaa !3
  store ptr %1, ptr %4, align 8, !tbaa !3
  %5 = load ptr, ptr %4, align 8, !tbaa !3
  %6 = load i8, ptr %5, align 1, !tbaa !12
  %7 = load ptr, ptr %3, align 8, !tbaa !3
  store i8 %6, ptr %7, align 1, !tbaa !12
  ret void
}

; Function Attrs: mustprogress nounwind uwtable
define available_externally noundef ptr @_ZNKSt7__cxx1112basic_stringIcSt11char_traitsIcESaIcEE7_M_dataEv(ptr noundef nonnull align 8 dereferenceable(32) %0) #3 align 2 {
  %2 = alloca ptr, align 8
  store ptr %0, ptr %2, align 8, !tbaa !3
  %3 = load ptr, ptr %2, align 8
  %4 = getelementptr inbounds nuw %"class.std::__cxx11::basic_string", ptr %3, i32 0, i32 0
  %5 = getelementptr inbounds nuw %"struct.std::__cxx11::basic_string<char>::_Alloc_hider", ptr %4, i32 0, i32 0
  %6 = load ptr, ptr %5, align 8, !tbaa !176
  ret ptr %6
}

; Function Attrs: mustprogress nounwind uwtable
define available_externally void @_ZNSt7__cxx1112basic_stringIcSt11char_traitsIcESaIcEE9_M_lengthEm(ptr noundef nonnull align 8 dereferenceable(32) %0, i64 noundef %1) #3 align 2 {
  %3 = alloca ptr, align 8
  %4 = alloca i64, align 8
  store ptr %0, ptr %3, align 8, !tbaa !3
  store i64 %1, ptr %4, align 8, !tbaa !24
  %5 = load ptr, ptr %3, align 8
  %6 = load i64, ptr %4, align 8, !tbaa !24
  %7 = getelementptr inbounds nuw %"class.std::__cxx11::basic_string", ptr %5, i32 0, i32 1
  store i64 %6, ptr %7, align 8, !tbaa !80
  ret void
}

; Function Attrs: noinline noreturn nounwind uwtable
define linkonce_odr hidden void @__clang_call_terminate(ptr noundef %0) #1 comdat {
  %2 = call ptr @__cxa_begin_catch(ptr %0) #9
  call void @_ZSt9terminatev() #26
  unreachable
}

; Function Attrs: mustprogress uwtable
define available_externally void @_ZNSt7__cxx1112basic_stringIcSt11char_traitsIcESaIcEE13_M_set_lengthEm(ptr noundef nonnull align 8 dereferenceable(32) %0, i64 noundef %1) #4 align 2 {
  %3 = alloca ptr, align 8
  %4 = alloca i64, align 8
  %5 = alloca i8, align 1
  store ptr %0, ptr %3, align 8, !tbaa !3
  store i64 %1, ptr %4, align 8, !tbaa !24
  %6 = load ptr, ptr %3, align 8
  %7 = load i64, ptr %4, align 8, !tbaa !24
  call void @_ZNSt7__cxx1112basic_stringIcSt11char_traitsIcESaIcEE9_M_lengthEm(ptr noundef nonnull align 8 dereferenceable(32) %6, i64 noundef %7)
  %8 = call noundef ptr @_ZNKSt7__cxx1112basic_stringIcSt11char_traitsIcESaIcEE7_M_dataEv(ptr noundef nonnull align 8 dereferenceable(32) %6)
  %9 = load i64, ptr %4, align 8, !tbaa !24
  %10 = getelementptr inbounds nuw i8, ptr %8, i64 %9
  call void @llvm.lifetime.start.p0(i64 1, ptr %5) #9
  store i8 0, ptr %5, align 1, !tbaa !12
  call void @_ZNSt11char_traitsIcE6assignERcRKc(ptr noundef nonnull align 1 dereferenceable(1) %10, ptr noundef nonnull align 1 dereferenceable(1) %5) #9
  call void @llvm.lifetime.end.p0(i64 1, ptr %5) #9
  ret void
}

; Function Attrs: inlinehint mustprogress nounwind uwtable
define linkonce_odr noundef i32 @_ZStorSt12_Ios_IostateS_(i32 noundef %0, i32 noundef %1) #5 comdat {
  %3 = alloca i32, align 4
  %4 = alloca i32, align 4
  store i32 %0, ptr %3, align 4, !tbaa !339
  store i32 %1, ptr %4, align 4, !tbaa !339
  %5 = load i32, ptr %3, align 4, !tbaa !339
  %6 = load i32, ptr %4, align 4, !tbaa !339
  %7 = or i32 %5, %6
  ret i32 %7
}

; Function Attrs: mustprogress nounwind uwtable
define available_externally noundef i32 @_ZNKSt9basic_iosIcSt11char_traitsIcEE7rdstateEv(ptr noundef nonnull align 8 dereferenceable(264) %0) #3 align 2 {
  %2 = alloca ptr, align 8
  store ptr %0, ptr %2, align 8, !tbaa !3
  %3 = load ptr, ptr %2, align 8
  %4 = getelementptr inbounds nuw %"class.std::ios_base", ptr %3, i32 0, i32 5
  %5 = load i32, ptr %4, align 8, !tbaa !340
  ret i32 %5
}

; Function Attrs: mustprogress nounwind uwtable
define available_externally void @_ZNSt7__cxx1112basic_stringIcSt11char_traitsIcESaIcEE5clearEv(ptr noundef nonnull align 8 dereferenceable(32) %0) #3 align 2 personality ptr @__gxx_personality_v0 {
  %2 = alloca ptr, align 8
  store ptr %0, ptr %2, align 8, !tbaa !3
  %3 = load ptr, ptr %2, align 8
  invoke void @_ZNSt7__cxx1112basic_stringIcSt11char_traitsIcESaIcEE13_M_set_lengthEm(ptr noundef nonnull align 8 dereferenceable(32) %3, i64 noundef 0)
          to label %4 unwind label %5

4:                                                ; preds = %1
  ret void

5:                                                ; preds = %1
  %6 = landingpad { ptr, i32 }
          catch ptr null
  %7 = extractvalue { ptr, i32 } %6, 0
  call void @__clang_call_terminate(ptr %7) #26
  unreachable
}

; Function Attrs: mustprogress uwtable
define available_externally void @_ZNSt9basic_iosIcSt11char_traitsIcEE8setstateESt12_Ios_Iostate(ptr noundef nonnull align 8 dereferenceable(264) %0, i32 noundef %1) #4 align 2 {
  %3 = alloca ptr, align 8
  %4 = alloca i32, align 4
  store ptr %0, ptr %3, align 8, !tbaa !3
  store i32 %1, ptr %4, align 4, !tbaa !339
  %5 = load ptr, ptr %3, align 8
  %6 = call noundef i32 @_ZNKSt9basic_iosIcSt11char_traitsIcEE7rdstateEv(ptr noundef nonnull align 8 dereferenceable(264) %5)
  %7 = load i32, ptr %4, align 4, !tbaa !339
  %8 = call noundef i32 @_ZStorSt12_Ios_IostateS_(i32 noundef %6, i32 noundef %7)
  call void @_ZNSt9basic_iosIcSt11char_traitsIcEE5clearESt12_Ios_Iostate(ptr noundef nonnull align 8 dereferenceable(264) %5, i32 noundef %8)
  ret void
}

; Function Attrs: mustprogress nounwind uwtable
define available_externally noundef zeroext i1 @_ZNKSt13basic_filebufIcSt11char_traitsIcEE7is_openEv(ptr noundef nonnull align 8 dereferenceable(240) %0) #3 align 2 {
  %2 = alloca ptr, align 8
  store ptr %0, ptr %2, align 8, !tbaa !3
  %3 = load ptr, ptr %2, align 8
  %4 = getelementptr inbounds nuw %"class.std::basic_filebuf", ptr %3, i32 0, i32 2
  %5 = call noundef zeroext i1 @_ZNKSt12__basic_fileIcE7is_openEv(ptr noundef nonnull align 8 dereferenceable(9) %4) #28
  ret i1 %5
}

; Function Attrs: mustprogress nounwind uwtable
define linkonce_odr hidden void @_ZN5boost10filesystem4path5clearEv(ptr noundef nonnull align 8 dereferenceable(32) %0) #3 comdat align 2 {
  %2 = alloca ptr, align 8
  store ptr %0, ptr %2, align 8, !tbaa !3
  %3 = load ptr, ptr %2, align 8
  %4 = getelementptr inbounds nuw %"class.boost::filesystem::path", ptr %3, i32 0, i32 0
  call void @_ZNSt7__cxx1112basic_stringIcSt11char_traitsIcESaIcEE5clearEv(ptr noundef nonnull align 8 dereferenceable(32) %4) #9
  ret void
}

; Function Attrs: mustprogress uwtable
define available_externally void @_ZNSt14basic_ofstreamIcSt11char_traitsIcEE5closeEv(ptr noundef nonnull align 8 dereferenceable(248) %0) #4 align 2 {
  %2 = alloca ptr, align 8
  store ptr %0, ptr %2, align 8, !tbaa !3
  %3 = load ptr, ptr %2, align 8
  %4 = getelementptr inbounds nuw %"class.std::basic_ofstream", ptr %3, i32 0, i32 1
  %5 = call noundef ptr @_ZNSt13basic_filebufIcSt11char_traitsIcEE5closeEv(ptr noundef nonnull align 8 dereferenceable(240) %4)
  %6 = icmp ne ptr %5, null
  br i1 %6, label %12, label %7

7:                                                ; preds = %1
  %8 = load ptr, ptr %3, align 8, !tbaa !46
  %9 = getelementptr i8, ptr %8, i64 -24
  %10 = load i64, ptr %9, align 8
  %11 = getelementptr inbounds i8, ptr %3, i64 %10
  call void @_ZNSt9basic_iosIcSt11char_traitsIcEE8setstateESt12_Ios_Iostate(ptr noundef nonnull align 8 dereferenceable(264) %11, i32 noundef 4)
  br label %12

12:                                               ; preds = %7, %1
  ret void
}

; Function Attrs: mustprogress uwtable
define linkonce_odr hidden void @_ZNK5boost3log11v2_mt_posix3aux14light_functionIFvRSoEEclES4_(ptr noundef nonnull align 8 dereferenceable(8) %0, ptr noundef nonnull align 8 dereferenceable(8) %1) #4 comdat align 2 {
  %3 = alloca ptr, align 8
  %4 = alloca ptr, align 8
  store ptr %0, ptr %3, align 8, !tbaa !3
  store ptr %1, ptr %4, align 8, !tbaa !3
  %5 = load ptr, ptr %3, align 8
  %6 = getelementptr inbounds nuw %"class.boost::log::v2_mt_posix::aux::light_function.153", ptr %5, i32 0, i32 0
  %7 = load ptr, ptr %6, align 8, !tbaa !172
  %8 = getelementptr inbounds nuw %"struct.boost::log::v2_mt_posix::aux::light_function<void (std::basic_ostream<char> &)>::impl_base", ptr %7, i32 0, i32 0
  %9 = load ptr, ptr %8, align 8, !tbaa !173
  %10 = getelementptr inbounds nuw %"class.boost::log::v2_mt_posix::aux::light_function.153", ptr %5, i32 0, i32 0
  %11 = load ptr, ptr %10, align 8, !tbaa !172
  %12 = load ptr, ptr %4, align 8, !tbaa !3
  call void %9(ptr noundef %11, ptr noundef nonnull align 8 dereferenceable(8) %12)
  ret void
}

; Function Attrs: mustprogress nounwind uwtable
define linkonce_odr hidden noundef zeroext i1 @_ZNK5boost3log11v2_mt_posix3aux14light_functionIFvRSoEE5emptyEv(ptr noundef nonnull align 8 dereferenceable(8) %0) #3 comdat align 2 {
  %2 = alloca ptr, align 8
  store ptr %0, ptr %2, align 8, !tbaa !3
  %3 = load ptr, ptr %2, align 8
  %4 = getelementptr inbounds nuw %"class.boost::log::v2_mt_posix::aux::light_function.153", ptr %3, i32 0, i32 0
  %5 = load ptr, ptr %4, align 8, !tbaa !172
  %6 = icmp eq ptr %5, null
  ret i1 %6
}

; Function Attrs: mustprogress nounwind uwtable
define available_externally noundef zeroext i1 @_ZNSt14basic_ofstreamIcSt11char_traitsIcEE7is_openEv(ptr noundef nonnull align 8 dereferenceable(248) %0) #3 align 2 {
  %2 = alloca ptr, align 8
  store ptr %0, ptr %2, align 8, !tbaa !3
  %3 = load ptr, ptr %2, align 8
  %4 = getelementptr inbounds nuw %"class.std::basic_ofstream", ptr %3, i32 0, i32 1
  %5 = call noundef zeroext i1 @_ZNKSt13basic_filebufIcSt11char_traitsIcEE7is_openEv(ptr noundef nonnull align 8 dereferenceable(240) %4) #9
  ret i1 %5
}

; Function Attrs: mustprogress uwtable
define hidden void @_ZN5boost3log11v2_mt_posix5sinks17text_file_backend10close_fileEv(ptr noundef nonnull align 8 dereferenceable(8) %0) #4 align 2 {
  %2 = alloca ptr, align 8
  store ptr %0, ptr %2, align 8, !tbaa !3
  %3 = load ptr, ptr %2, align 8
  %4 = getelementptr inbounds nuw %"class.boost::log::v2_mt_posix::sinks::text_file_backend", ptr %3, i32 0, i32 0
  %5 = load ptr, ptr %4, align 8, !tbaa !142
  %6 = getelementptr inbounds nuw %"struct.boost::log::v2_mt_posix::sinks::text_file_backend::implementation", ptr %5, i32 0, i32 9
  %7 = call noundef zeroext i1 @_ZNSt14basic_ofstreamIcSt11char_traitsIcEE7is_openEv(ptr noundef nonnull align 8 dereferenceable(248) %6)
  br i1 %7, label %8, label %31

8:                                                ; preds = %1
  %9 = getelementptr inbounds nuw %"class.boost::log::v2_mt_posix::sinks::text_file_backend", ptr %3, i32 0, i32 0
  %10 = load ptr, ptr %9, align 8, !tbaa !142
  %11 = getelementptr inbounds nuw %"struct.boost::log::v2_mt_posix::sinks::text_file_backend::implementation", ptr %10, i32 0, i32 13
  %12 = call noundef zeroext i1 @_ZNK5boost3log11v2_mt_posix3aux14light_functionIFvRSoEE5emptyEv(ptr noundef nonnull align 8 dereferenceable(8) %11) #9
  br i1 %12, label %27, label %13

13:                                               ; preds = %8
  %14 = getelementptr inbounds nuw %"class.boost::log::v2_mt_posix::sinks::text_file_backend", ptr %3, i32 0, i32 0
  %15 = load ptr, ptr %14, align 8, !tbaa !142
  %16 = getelementptr inbounds nuw %"struct.boost::log::v2_mt_posix::sinks::text_file_backend::implementation", ptr %15, i32 0, i32 9
  %17 = load ptr, ptr %16, align 8, !tbaa !46
  %18 = getelementptr i8, ptr %17, i64 -24
  %19 = load i64, ptr %18, align 8
  %20 = getelementptr inbounds i8, ptr %16, i64 %19
  call void @_ZNSt9basic_iosIcSt11char_traitsIcEE5clearESt12_Ios_Iostate(ptr noundef nonnull align 8 dereferenceable(264) %20, i32 noundef 0)
  %21 = getelementptr inbounds nuw %"class.boost::log::v2_mt_posix::sinks::text_file_backend", ptr %3, i32 0, i32 0
  %22 = load ptr, ptr %21, align 8, !tbaa !142
  %23 = getelementptr inbounds nuw %"struct.boost::log::v2_mt_posix::sinks::text_file_backend::implementation", ptr %22, i32 0, i32 13
  %24 = getelementptr inbounds nuw %"class.boost::log::v2_mt_posix::sinks::text_file_backend", ptr %3, i32 0, i32 0
  %25 = load ptr, ptr %24, align 8, !tbaa !142
  %26 = getelementptr inbounds nuw %"struct.boost::log::v2_mt_posix::sinks::text_file_backend::implementation", ptr %25, i32 0, i32 9
  call void @_ZNK5boost3log11v2_mt_posix3aux14light_functionIFvRSoEEclES4_(ptr noundef nonnull align 8 dereferenceable(8) %23, ptr noundef nonnull align 8 dereferenceable(8) %26)
  br label %27

27:                                               ; preds = %13, %8
  %28 = getelementptr inbounds nuw %"class.boost::log::v2_mt_posix::sinks::text_file_backend", ptr %3, i32 0, i32 0
  %29 = load ptr, ptr %28, align 8, !tbaa !142
  %30 = getelementptr inbounds nuw %"struct.boost::log::v2_mt_posix::sinks::text_file_backend::implementation", ptr %29, i32 0, i32 9
  call void @_ZNSt14basic_ofstreamIcSt11char_traitsIcEE5closeEv(ptr noundef nonnull align 8 dereferenceable(248) %30)
  br label %31

31:                                               ; preds = %27, %1
  %32 = getelementptr inbounds nuw %"class.boost::log::v2_mt_posix::sinks::text_file_backend", ptr %3, i32 0, i32 0
  %33 = load ptr, ptr %32, align 8, !tbaa !142
  %34 = getelementptr inbounds nuw %"struct.boost::log::v2_mt_posix::sinks::text_file_backend::implementation", ptr %33, i32 0, i32 9
  %35 = load ptr, ptr %34, align 8, !tbaa !46
  %36 = getelementptr i8, ptr %35, i64 -24
  %37 = load i64, ptr %36, align 8
  %38 = getelementptr inbounds i8, ptr %34, i64 %37
  call void @_ZNSt9basic_iosIcSt11char_traitsIcEE5clearESt12_Ios_Iostate(ptr noundef nonnull align 8 dereferenceable(264) %38, i32 noundef 0)
  %39 = getelementptr inbounds nuw %"class.boost::log::v2_mt_posix::sinks::text_file_backend", ptr %3, i32 0, i32 0
  %40 = load ptr, ptr %39, align 8, !tbaa !142
  %41 = getelementptr inbounds nuw %"struct.boost::log::v2_mt_posix::sinks::text_file_backend::implementation", ptr %40, i32 0, i32 10
  store i64 0, ptr %41, align 8, !tbaa !154
  %42 = getelementptr inbounds nuw %"class.boost::log::v2_mt_posix::sinks::text_file_backend", ptr %3, i32 0, i32 0
  %43 = load ptr, ptr %42, align 8, !tbaa !142
  %44 = getelementptr inbounds nuw %"struct.boost::log::v2_mt_posix::sinks::text_file_backend::implementation", ptr %43, i32 0, i32 8
  call void @_ZN5boost10filesystem4path5clearEv(ptr noundef nonnull align 8 dereferenceable(32) %44) #9
  ret void
}