; Function Attrs: mustprogress uwtable
define hidden void @_ZN5boost3log11v2_mt_posix5sinks17text_file_backend10close_fileEv(ptr nocapture noundef nonnull readonly align 8 dereferenceable(8) %0) local_unnamed_addr #4 align 2 personality ptr @__gxx_personality_v0 {
  %2 = load ptr, ptr %0, align 8, !tbaa !225
  %3 = getelementptr inbounds nuw i8, ptr %2, i64 184
  %4 = getelementptr inbounds nuw i8, ptr %2, i64 296
  %5 = tail call noundef zeroext i1 @_ZNKSt12__basic_fileIcE7is_openEv(ptr noundef nonnull align 8 dereferenceable(9) %4) #34
  br i1 %5, label %6, label %_ZNSt14basic_ofstreamIcSt11char_traitsIcEE5closeEv.exit

6:                                                ; preds = %1
  %7 = getelementptr inbounds nuw i8, ptr %2, i64 728
  %8 = load ptr, ptr %7, align 8, !tbaa !246
  %9 = icmp eq ptr %8, null
  br i1 %9, label %20, label %10

10:                                               ; preds = %6
  %11 = load ptr, ptr %3, align 8, !tbaa !49
  %12 = getelementptr i8, ptr %11, i64 -24
  %13 = load i64, ptr %12, align 8
  %14 = getelementptr inbounds i8, ptr %3, i64 %13
  tail call void @_ZNSt9basic_iosIcSt11char_traitsIcEE5clearESt12_Ios_Iostate(ptr noundef nonnull align 8 dereferenceable(264) %14, i32 noundef 0)
  %15 = load ptr, ptr %0, align 8, !tbaa !225
  %16 = getelementptr inbounds nuw i8, ptr %15, i64 728
  %17 = getelementptr inbounds nuw i8, ptr %15, i64 184
  %18 = load ptr, ptr %16, align 8, !tbaa !246
  %19 = load ptr, ptr %18, align 8, !tbaa !271
  tail call void %19(ptr noundef nonnull %18, ptr noundef nonnull align 8 dereferenceable(8) %17)
  %.pre = load ptr, ptr %0, align 8, !tbaa !225
  br label %20

20:                                               ; preds = %10, %6
  %21 = phi ptr [ %.pre, %10 ], [ %2, %6 ]
  %22 = getelementptr inbounds nuw i8, ptr %21, i64 192
  %23 = tail call noundef ptr @_ZNSt13basic_filebufIcSt11char_traitsIcEE5closeEv(ptr noundef nonnull align 8 dereferenceable(240) %22)
  %.not.i = icmp eq ptr %23, null
  br i1 %.not.i, label %24, label %_ZNSt14basic_ofstreamIcSt11char_traitsIcEE5closeEv.exit

24:                                               ; preds = %20
  %25 = getelementptr inbounds nuw i8, ptr %21, i64 184
  %26 = load ptr, ptr %25, align 8, !tbaa !49
  %27 = getelementptr i8, ptr %26, i64 -24
  %28 = load i64, ptr %27, align 8
  %29 = getelementptr inbounds i8, ptr %25, i64 %28
  %30 = getelementptr inbounds nuw i8, ptr %29, i64 32
  %31 = load i32, ptr %30, align 8, !tbaa !259
  %32 = or i32 %31, 4
  tail call void @_ZNSt9basic_iosIcSt11char_traitsIcEE5clearESt12_Ios_Iostate(ptr noundef nonnull align 8 dereferenceable(264) %29, i32 noundef %32)
  br label %_ZNSt14basic_ofstreamIcSt11char_traitsIcEE5closeEv.exit

_ZNSt14basic_ofstreamIcSt11char_traitsIcEE5closeEv.exit: ; preds = %24, %20, %1
  %33 = load ptr, ptr %0, align 8, !tbaa !225
  %34 = getelementptr inbounds nuw i8, ptr %33, i64 184
  %35 = load ptr, ptr %34, align 8, !tbaa !49
  %36 = getelementptr i8, ptr %35, i64 -24
  %37 = load i64, ptr %36, align 8
  %38 = getelementptr inbounds i8, ptr %34, i64 %37
  tail call void @_ZNSt9basic_iosIcSt11char_traitsIcEE5clearESt12_Ios_Iostate(ptr noundef nonnull align 8 dereferenceable(264) %38, i32 noundef 0)
  %39 = load ptr, ptr %0, align 8, !tbaa !225
  %40 = getelementptr inbounds nuw i8, ptr %39, i64 696
  store i64 0, ptr %40, align 8, !tbaa !236
  %41 = getelementptr inbounds nuw i8, ptr %39, i64 152
  %42 = getelementptr inbounds nuw i8, ptr %39, i64 160
  store i64 0, ptr %42, align 8, !tbaa !16
  %43 = load ptr, ptr %41, align 8, !tbaa !13
  store i8 0, ptr %43, align 1, !tbaa !15
  ret void
}